target datalayout = "e-m:e-p270:32:32-p271:32:32-p272:64:64-i64:64-i128:128-f80:128-n8:16:32:64-S128"
target triple = "x86_64-pc-linux-gnu"

%struct.SDL_Renderer = type { ptr, ptr, ptr, ptr, ptr, ptr, ptr, ptr, ptr, ptr, ptr, ptr, ptr, ptr, ptr, ptr, ptr, ptr, ptr, ptr, ptr, ptr, ptr, ptr, ptr, ptr, ptr, ptr, ptr, ptr, i32, i8, ptr, i8, i8, i8, i64, i64, ptr, %struct.SDL_RenderViewState, %struct.SDL_FPoint, i32, i32, ptr, ptr, ptr, i32, float, float, float, float, %struct.SDL_FColor, i32, i32, i32, ptr, ptr, ptr, ptr, i32, %struct.SDL_FColor, float, %struct.SDL_Rect, %struct.SDL_Rect, i8, i8, i8, i8, ptr, i64, i64, i8, ptr, ptr, i32, ptr, i8, ptr, ptr }
%struct.SDL_RenderViewState = type { i32, i32, %struct.SDL_Rect, %struct.SDL_Rect, %struct.SDL_Rect, %struct.SDL_Rect, i8, %struct.SDL_FPoint, i32, i32, i32, %struct.SDL_FRect, %struct.SDL_FRect, %struct.SDL_FPoint, %struct.SDL_FPoint, %struct.SDL_FPoint }
%struct.SDL_FRect = type { float, float, float, float }
%struct.SDL_FPoint = type { float, float }
%struct.SDL_FColor = type { float, float, float, float }
%struct.SDL_Rect = type { i32, i32, i32, i32 }
%struct.SDL_Texture = type { i32, i32, i32, i32, i32, float, float, i32, i32, i32, %struct.SDL_FColor, %struct.SDL_RenderViewState, ptr, ptr, ptr, ptr, i32, %struct.SDL_Rect, ptr, i32, i32, ptr, ptr, ptr }
%struct.SDL_RenderCommand = type { i32, %union.anon, ptr }
%union.anon = type { %struct.anon.1 }
%struct.anon.1 = type { i64, i64, float, %struct.SDL_FColor, i32, ptr, i32, i32, i32, ptr }

@rect_index_order = internal constant [6 x i32] [i32 0, i32 1, i32 2, i32 0, i32 2, i32 3], align 16

; Function Attrs: nounwind uwtable
define internal zeroext i1 @QueueCmdGeometry(ptr noundef %0, ptr noundef %1, ptr noundef %2, i32 noundef %3, ptr noundef %4, i32 noundef %5, ptr noundef %6, i32 noundef %7, i32 noundef %8, ptr noundef %9, i32 noundef %10, i32 noundef %11, float noundef %12, float noundef %13, i32 noundef %14, i32 noundef %15) #0 {
  %17 = alloca ptr, align 8
  %18 = alloca ptr, align 8
  %19 = alloca ptr, align 8
  %20 = alloca i32, align 4
  %21 = alloca ptr, align 8
  %22 = alloca i32, align 4
  %23 = alloca ptr, align 8
  %24 = alloca i32, align 4
  %25 = alloca i32, align 4
  %26 = alloca ptr, align 8
  %27 = alloca i32, align 4
  %28 = alloca i32, align 4
  %29 = alloca float, align 4
  %30 = alloca float, align 4
  %31 = alloca i32, align 4
  %32 = alloca i32, align 4
  %33 = alloca ptr, align 8
  %34 = alloca i8, align 1
  store ptr %0, ptr %17, align 8
  store ptr %1, ptr %18, align 8
  store ptr %2, ptr %19, align 8
  store i32 %3, ptr %20, align 4
  store ptr %4, ptr %21, align 8
  store i32 %5, ptr %22, align 4
  store ptr %6, ptr %23, align 8
  store i32 %7, ptr %24, align 4
  store i32 %8, ptr %25, align 4
  store ptr %9, ptr %26, align 8
  store i32 %10, ptr %27, align 4
  store i32 %11, ptr %28, align 4
  store float %12, ptr %29, align 4
  store float %13, ptr %30, align 4
  store i32 %14, ptr %31, align 4
  store i32 %15, ptr %32, align 4
  call void @llvm.lifetime.start.p0(i64 8, ptr %33) #10
  call void @llvm.lifetime.start.p0(i64 1, ptr %34) #10
  store i8 0, ptr %34, align 1
  %35 = load ptr, ptr %17, align 8
  %36 = load ptr, ptr %18, align 8
  %37 = call ptr @PrepQueueCmdDraw(ptr noundef %35, i32 noundef 10, ptr noundef %36)
  store ptr %37, ptr %33, align 8
  %38 = load ptr, ptr %33, align 8
  %39 = icmp ne ptr %38, null
  br i1 %39, label %40, label %75

40:                                               ; preds = %16
  %41 = load i32, ptr %31, align 4
  %42 = load ptr, ptr %33, align 8
  %43 = getelementptr inbounds nuw %struct.SDL_RenderCommand, ptr %42, i32 0, i32 1
  %44 = getelementptr inbounds nuw %struct.anon.1, ptr %43, i32 0, i32 7
  store i32 %41, ptr %44, align 4
  %45 = load i32, ptr %32, align 4
  %46 = load ptr, ptr %33, align 8
  %47 = getelementptr inbounds nuw %struct.SDL_RenderCommand, ptr %46, i32 0, i32 1
  %48 = getelementptr inbounds nuw %struct.anon.1, ptr %47, i32 0, i32 8
  store i32 %45, ptr %48, align 8
  %49 = load ptr, ptr %17, align 8
  %50 = getelementptr inbounds nuw %struct.SDL_Renderer, ptr %49, i32 0, i32 11
  %51 = load ptr, ptr %50, align 8
  %52 = load ptr, ptr %17, align 8
  %53 = load ptr, ptr %33, align 8
  %54 = load ptr, ptr %18, align 8
  %55 = load ptr, ptr %19, align 8
  %56 = load i32, ptr %20, align 4
  %57 = load ptr, ptr %21, align 8
  %58 = load i32, ptr %22, align 4
  %59 = load ptr, ptr %23, align 8
  %60 = load i32, ptr %24, align 4
  %61 = load i32, ptr %25, align 4
  %62 = load ptr, ptr %26, align 8
  %63 = load i32, ptr %27, align 4
  %64 = load i32, ptr %28, align 4
  %65 = load float, ptr %29, align 4
  %66 = load float, ptr %30, align 4
  %67 = call zeroext i1 %51(ptr noundef %52, ptr noundef %53, ptr noundef %54, ptr noundef %55, i32 noundef %56, ptr noundef %57, i32 noundef %58, ptr noundef %59, i32 noundef %60, i32 noundef %61, ptr noundef %62, i32 noundef %63, i32 noundef %64, float noundef %65, float noundef %66)
  %68 = zext i1 %67 to i8
  store i8 %68, ptr %34, align 1
  %69 = load i8, ptr %34, align 1, !range !5, !noundef !6
  %70 = trunc i8 %69 to i1
  br i1 %70, label %74, label %71

71:                                               ; preds = %40
  %72 = load ptr, ptr %33, align 8
  %73 = getelementptr inbounds nuw %struct.SDL_RenderCommand, ptr %72, i32 0, i32 0
  store i32 0, ptr %73, align 8
  br label %74

74:                                               ; preds = %71, %40
  br label %75

75:                                               ; preds = %74, %16
  %76 = load i8, ptr %34, align 1, !range !5, !noundef !6
  %77 = trunc i8 %76 to i1
  call void @llvm.lifetime.end.p0(i64 1, ptr %34) #10
  call void @llvm.lifetime.end.p0(i64 8, ptr %33) #10
  ret i1 %77
}

; Function Attrs: nounwind uwtable
define internal zeroext i1 @SDL_RenderTextureTiled_Wrap(ptr noundef %0, ptr noundef %1, ptr noundef %2, float noundef %3, ptr noundef %4) #0 {
  %6 = alloca ptr, align 8
  %7 = alloca ptr, align 8
  %8 = alloca ptr, align 8
  %9 = alloca float, align 4
  %10 = alloca ptr, align 8
  %11 = alloca [8 x float], align 16
  %12 = alloca i32, align 4
  %13 = alloca [8 x float], align 16
  %14 = alloca i32, align 4
  %15 = alloca i32, align 4
  %16 = alloca ptr, align 8
  %17 = alloca i32, align 4
  %18 = alloca i32, align 4
  %19 = alloca float, align 4
  %20 = alloca float, align 4
  %21 = alloca float, align 4
  %22 = alloca float, align 4
  %23 = alloca float, align 4
  %24 = alloca float, align 4
  %25 = alloca float, align 4
  %26 = alloca float, align 4
  %27 = alloca ptr, align 8
  store ptr %0, ptr %6, align 8
  store ptr %1, ptr %7, align 8
  store ptr %2, ptr %8, align 8
  store float %3, ptr %9, align 4
  store ptr %4, ptr %10, align 8
  call void @llvm.lifetime.start.p0(i64 32, ptr %11) #10
  call void @llvm.lifetime.start.p0(i64 4, ptr %12) #10
  store i32 8, ptr %12, align 4
  call void @llvm.lifetime.start.p0(i64 32, ptr %13) #10
  call void @llvm.lifetime.start.p0(i64 4, ptr %14) #10
  store i32 8, ptr %14, align 4
  call void @llvm.lifetime.start.p0(i64 4, ptr %15) #10
  store i32 4, ptr %15, align 4
  call void @llvm.lifetime.start.p0(i64 8, ptr %16) #10
  store ptr @rect_index_order, ptr %16, align 8
  call void @llvm.lifetime.start.p0(i64 4, ptr %17) #10
  store i32 6, ptr %17, align 4
  call void @llvm.lifetime.start.p0(i64 4, ptr %18) #10
  store i32 4, ptr %18, align 4
  call void @llvm.lifetime.start.p0(i64 4, ptr %19) #10
  call void @llvm.lifetime.start.p0(i64 4, ptr %20) #10
  call void @llvm.lifetime.start.p0(i64 4, ptr %21) #10
  call void @llvm.lifetime.start.p0(i64 4, ptr %22) #10
  call void @llvm.lifetime.start.p0(i64 4, ptr %23) #10
  call void @llvm.lifetime.start.p0(i64 4, ptr %24) #10
  call void @llvm.lifetime.start.p0(i64 4, ptr %25) #10
  call void @llvm.lifetime.start.p0(i64 4, ptr %26) #10
  store float 0.000000e+00, ptr %19, align 4
  store float 0.000000e+00, ptr %20, align 4
  %28 = load ptr, ptr %10, align 8
  %29 = getelementptr inbounds nuw %struct.SDL_FRect, ptr %28, i32 0, i32 2
  %30 = load float, ptr %29, align 4
  %31 = load ptr, ptr %8, align 8
  %32 = getelementptr inbounds nuw %struct.SDL_FRect, ptr %31, i32 0, i32 2
  %33 = load float, ptr %32, align 4
  %34 = load float, ptr %9, align 4
  %35 = fmul float %33, %34
  %36 = fdiv float %30, %35
  store float %36, ptr %21, align 4
  %37 = load ptr, ptr %10, align 8
  %38 = getelementptr inbounds nuw %struct.SDL_FRect, ptr %37, i32 0, i32 3
  %39 = load float, ptr %38, align 4
  %40 = load ptr, ptr %8, align 8
  %41 = getelementptr inbounds nuw %struct.SDL_FRect, ptr %40, i32 0, i32 3
  %42 = load float, ptr %41, align 4
  %43 = load float, ptr %9, align 4
  %44 = fmul float %42, %43
  %45 = fdiv float %39, %44
  store float %45, ptr %22, align 4
  %46 = load ptr, ptr %10, align 8
  %47 = getelementptr inbounds nuw %struct.SDL_FRect, ptr %46, i32 0, i32 0
  %48 = load float, ptr %47, align 4
  store float %48, ptr %23, align 4
  %49 = load ptr, ptr %10, align 8
  %50 = getelementptr inbounds nuw %struct.SDL_FRect, ptr %49, i32 0, i32 1
  %51 = load float, ptr %50, align 4
  store float %51, ptr %24, align 4
  %52 = load ptr, ptr %10, align 8
  %53 = getelementptr inbounds nuw %struct.SDL_FRect, ptr %52, i32 0, i32 0
  %54 = load float, ptr %53, align 4
  %55 = load ptr, ptr %10, align 8
  %56 = getelementptr inbounds nuw %struct.SDL_FRect, ptr %55, i32 0, i32 2
  %57 = load float, ptr %56, align 4
  %58 = fadd float %54, %57
  store float %58, ptr %25, align 4
  %59 = load ptr, ptr %10, align 8
  %60 = getelementptr inbounds nuw %struct.SDL_FRect, ptr %59, i32 0, i32 1
  %61 = load float, ptr %60, align 4
  %62 = load ptr, ptr %10, align 8
  %63 = getelementptr inbounds nuw %struct.SDL_FRect, ptr %62, i32 0, i32 3
  %64 = load float, ptr %63, align 4
  %65 = fadd float %61, %64
  store float %65, ptr %26, align 4
  %66 = load float, ptr %19, align 4
  %67 = getelementptr inbounds [8 x float], ptr %13, i64 0, i64 0
  store float %66, ptr %67, align 16
  %68 = load float, ptr %20, align 4
  %69 = getelementptr inbounds [8 x float], ptr %13, i64 0, i64 1
  store float %68, ptr %69, align 4
  %70 = load float, ptr %21, align 4
  %71 = getelementptr inbounds [8 x float], ptr %13, i64 0, i64 2
  store float %70, ptr %71, align 8
  %72 = load float, ptr %20, align 4
  %73 = getelementptr inbounds [8 x float], ptr %13, i64 0, i64 3
  store float %72, ptr %73, align 4
  %74 = load float, ptr %21, align 4
  %75 = getelementptr inbounds [8 x float], ptr %13, i64 0, i64 4
  store float %74, ptr %75, align 16
  %76 = load float, ptr %22, align 4
  %77 = getelementptr inbounds [8 x float], ptr %13, i64 0, i64 5
  store float %76, ptr %77, align 4
  %78 = load float, ptr %19, align 4
  %79 = getelementptr inbounds [8 x float], ptr %13, i64 0, i64 6
  store float %78, ptr %79, align 8
  %80 = load float, ptr %22, align 4
  %81 = getelementptr inbounds [8 x float], ptr %13, i64 0, i64 7
  store float %80, ptr %81, align 4
  %82 = load float, ptr %23, align 4
  %83 = getelementptr inbounds [8 x float], ptr %11, i64 0, i64 0
  store float %82, ptr %83, align 16
  %84 = load float, ptr %24, align 4
  %85 = getelementptr inbounds [8 x float], ptr %11, i64 0, i64 1
  store float %84, ptr %85, align 4
  %86 = load float, ptr %25, align 4
  %87 = getelementptr inbounds [8 x float], ptr %11, i64 0, i64 2
  store float %86, ptr %87, align 8
  %88 = load float, ptr %24, align 4
  %89 = getelementptr inbounds [8 x float], ptr %11, i64 0, i64 3
  store float %88, ptr %89, align 4
  %90 = load float, ptr %25, align 4
  %91 = getelementptr inbounds [8 x float], ptr %11, i64 0, i64 4
  store float %90, ptr %91, align 16
  %92 = load float, ptr %26, align 4
  %93 = getelementptr inbounds [8 x float], ptr %11, i64 0, i64 5
  store float %92, ptr %93, align 4
  %94 = load float, ptr %23, align 4
  %95 = getelementptr inbounds [8 x float], ptr %11, i64 0, i64 6
  store float %94, ptr %95, align 8
  %96 = load float, ptr %26, align 4
  %97 = getelementptr inbounds [8 x float], ptr %11, i64 0, i64 7
  store float %96, ptr %97, align 4
  call void @llvm.lifetime.start.p0(i64 8, ptr %27) #10
  %98 = load ptr, ptr %6, align 8
  %99 = getelementptr inbounds nuw %struct.SDL_Renderer, ptr %98, i32 0, i32 38
  %100 = load ptr, ptr %99, align 8
  store ptr %100, ptr %27, align 8
  %101 = load ptr, ptr %6, align 8
  %102 = load ptr, ptr %7, align 8
  %103 = getelementptr inbounds [8 x float], ptr %11, i64 0, i64 0
  %104 = load ptr, ptr %7, align 8
  %105 = getelementptr inbounds nuw %struct.SDL_Texture, ptr %104, i32 0, i32 10
  %106 = getelementptr inbounds [8 x float], ptr %13, i64 0, i64 0
  %107 = load ptr, ptr %16, align 8
  %108 = load ptr, ptr %27, align 8
  %109 = getelementptr inbounds nuw %struct.SDL_RenderViewState, ptr %108, i32 0, i32 15
  %110 = getelementptr inbounds nuw %struct.SDL_FPoint, ptr %109, i32 0, i32 0
  %111 = load float, ptr %110, align 4
  %112 = load ptr, ptr %27, align 8
  %113 = getelementptr inbounds nuw %struct.SDL_RenderViewState, ptr %112, i32 0, i32 15
  %114 = getelementptr inbounds nuw %struct.SDL_FPoint, ptr %113, i32 0, i32 1
  %115 = load float, ptr %114, align 4
  %116 = call zeroext i1 @QueueCmdGeometry(ptr noundef %101, ptr noundef %102, ptr noundef %103, i32 noundef 8, ptr noundef %105, i32 noundef 0, ptr noundef %106, i32 noundef 8, i32 noundef 4, ptr noundef %107, i32 noundef 6, i32 noundef 4, float noundef %111, float noundef %115, i32 noundef 2, i32 noundef 2)
  call void @llvm.lifetime.end.p0(i64 8, ptr %27) #10
  call void @llvm.lifetime.end.p0(i64 4, ptr %26) #10
  call void @llvm.lifetime.end.p0(i64 4, ptr %25) #10
  call void @llvm.lifetime.end.p0(i64 4, ptr %24) #10
  call void @llvm.lifetime.end.p0(i64 4, ptr %23) #10
  call void @llvm.lifetime.end.p0(i64 4, ptr %22) #10
  call void @llvm.lifetime.end.p0(i64 4, ptr %21) #10
  call void @llvm.lifetime.end.p0(i64 4, ptr %20) #10
  call void @llvm.lifetime.end.p0(i64 4, ptr %19) #10
  call void @llvm.lifetime.end.p0(i64 4, ptr %18) #10
  call void @llvm.lifetime.end.p0(i64 4, ptr %17) #10
  call void @llvm.lifetime.end.p0(i64 8, ptr %16) #10
  call void @llvm.lifetime.end.p0(i64 4, ptr %15) #10
  call void @llvm.lifetime.end.p0(i64 4, ptr %14) #10
  call void @llvm.lifetime.end.p0(i64 32, ptr %13) #10
  call void @llvm.lifetime.end.p0(i64 4, ptr %12) #10
  call void @llvm.lifetime.end.p0(i64 32, ptr %11) #10
  ret i1 %116
}