; Function Attrs: nounwind uwtable
define internal fastcc noundef zeroext i1 @SDL_RenderTextureTiled_Wrap(ptr noundef %0, ptr noundef %1, float %.8.val, float %.12.val, float noundef %2, ptr noundef nonnull readonly captures(none) %3) unnamed_addr #0 {
  %5 = alloca [8 x float], align 16
  %6 = alloca [8 x float], align 16
  call void @llvm.lifetime.start.p0(i64 32, ptr nonnull %5) #15
  call void @llvm.lifetime.start.p0(i64 32, ptr nonnull %6) #15
  %7 = getelementptr inbounds nuw i8, ptr %3, i64 8
  %8 = load float, ptr %7, align 4
  %9 = fmul float %.8.val, %2
  %10 = fdiv float %8, %9
  %11 = getelementptr inbounds nuw i8, ptr %3, i64 12
  %12 = load float, ptr %11, align 4
  %13 = fmul float %.12.val, %2
  %14 = fdiv float %12, %13
  %15 = load float, ptr %3, align 4
  %16 = getelementptr inbounds nuw i8, ptr %3, i64 4
  %17 = load float, ptr %16, align 4
  %18 = fadd float %8, %15
  %19 = fadd float %12, %17
  store float 0.000000e+00, ptr %6, align 16
  %20 = getelementptr inbounds nuw i8, ptr %6, i64 4
  store float 0.000000e+00, ptr %20, align 4
  %21 = getelementptr inbounds nuw i8, ptr %6, i64 8
  store float %10, ptr %21, align 8
  %22 = getelementptr inbounds nuw i8, ptr %6, i64 12
  store float 0.000000e+00, ptr %22, align 4
  %23 = getelementptr inbounds nuw i8, ptr %6, i64 16
  store float %10, ptr %23, align 16
  %24 = getelementptr inbounds nuw i8, ptr %6, i64 20
  store float %14, ptr %24, align 4
  %25 = getelementptr inbounds nuw i8, ptr %6, i64 24
  store float 0.000000e+00, ptr %25, align 8
  %26 = getelementptr inbounds nuw i8, ptr %6, i64 28
  store float %14, ptr %26, align 4
  store float %15, ptr %5, align 16
  %27 = getelementptr inbounds nuw i8, ptr %5, i64 4
  store float %17, ptr %27, align 4
  %28 = getelementptr inbounds nuw i8, ptr %5, i64 8
  store float %18, ptr %28, align 8
  %29 = getelementptr inbounds nuw i8, ptr %5, i64 12
  store float %17, ptr %29, align 4
  %30 = getelementptr inbounds nuw i8, ptr %5, i64 16
  store float %18, ptr %30, align 16
  %31 = getelementptr inbounds nuw i8, ptr %5, i64 20
  store float %19, ptr %31, align 4
  %32 = getelementptr inbounds nuw i8, ptr %5, i64 24
  store float %15, ptr %32, align 8
  %33 = getelementptr inbounds nuw i8, ptr %5, i64 28
  store float %19, ptr %33, align 4
  %34 = getelementptr inbounds nuw i8, ptr %0, i64 280
  %35 = load ptr, ptr %34, align 8
  %36 = getelementptr inbounds nuw i8, ptr %35, i64 144
  %37 = load float, ptr %36, align 4
  %38 = getelementptr inbounds nuw i8, ptr %35, i64 148
  %39 = load float, ptr %38, align 4
  %40 = tail call fastcc ptr @PrepQueueCmdDraw(ptr noundef %0, i32 noundef 10, ptr noundef %1)
  %.not.i = icmp eq ptr %40, null
  br i1 %.not.i, label %QueueCmdGeometry.exit, label %41

41:                                               ; preds = %4
  %42 = getelementptr inbounds nuw i8, ptr %1, i64 40
  %43 = getelementptr inbounds nuw i8, ptr %40, i64 60
  store i32 2, ptr %43, align 4
  %44 = getelementptr inbounds nuw i8, ptr %40, i64 64
  store i32 2, ptr %44, align 8
  %45 = getelementptr inbounds nuw i8, ptr %0, i64 88
  %46 = load ptr, ptr %45, align 8
  %47 = call zeroext i1 %46(ptr noundef nonnull %0, ptr noundef nonnull %40, ptr noundef %1, ptr noundef nonnull %5, i32 noundef 8, ptr noundef nonnull %42, i32 noundef 0, ptr noundef nonnull %6, i32 noundef 8, i32 noundef 4, ptr noundef nonnull @rect_index_order, i32 noundef 6, i32 noundef 4, float noundef %37, float noundef %39) #15
  br i1 %47, label %QueueCmdGeometry.exit, label %48

48:                                               ; preds = %41
  store i32 0, ptr %40, align 8
  br label %QueueCmdGeometry.exit

QueueCmdGeometry.exit:                            ; preds = %4, %41, %48
  %.0.shrunk.i = phi i1 [ true, %41 ], [ false, %48 ], [ false, %4 ]
  call void @llvm.lifetime.end.p0(i64 32, ptr nonnull %6) #15
  call void @llvm.lifetime.end.p0(i64 32, ptr nonnull %5) #15
  ret i1 %.0.shrunk.i
}